Certificate:
    Data:
        Version: 3 (0x2)
        Serial Number:
            88:22:0c:92:7c:a5:23:a4
        Signature Algorithm: sha1WithRSAEncryption
        Issuer: C=US, ST=Hawaii, O=kevin1024, CN=pytest-httpbin Certificate Authority
        Validity
            Not Before: Jun  7 22:02:42 2014 GMT
            Not After : May 30 22:02:42 2044 GMT
        Subject: C=US, ST=Hawaii, O=kevin1024, CN=pytest-httpbin Certificate Authority
        Subject Public Key Info:
            Public Key Algorithm: rsaEncryption
            RSA Public Key: (1024 bit)
                Modulus (1024 bit):
                    00:b0:f3:d7:e7:98:6c:98:46:2f:50:b5:e5:d5:81:
                    a2:f0:22:96:6c:60:fc:64:e4:c2:7a:41:f1:2a:e5:
                    ec:57:96:b0:69:11:8a:aa:d7:49:f5:88:05:06:46:
                    46:36:c3:c7:da:25:9d:2c:eb:99:9b:52:94:40:cc:
                    2f:86:1b:8b:e1:ee:e7:bf:50:34:46:e6:f7:30:46:
                    97:25:59:17:ef:73:69:6c:d2:69:53:c0:ff:fd:2f:
                    37:10:75:fb:01:d2:3d:57:75:e2:9b:63:85:68:13:
                    bc:b6:26:5c:f2:2e:fb:3b:e9:bb:63:bb:48:c0:4f:
                    de:a0:c8:d8:94:a3:5b:56:03
                Exponent: 65537 (0x10001)
        X509v3 extensions:
            X509v3 Subject Key Identifier: 
                39:53:D8:7F:ED:44:B8:38:08:96:38:14:7E:9F:77:8B:68:3B:54:D0
            X509v3 Authority Key Identifier: 
                keyid:39:53:D8:7F:ED:44:B8:38:08:96:38:14:7E:9F:77:8B:68:3B:54:D0
                DirName:/C=US/ST=Hawaii/O=kevin1024/CN=pytest-httpbin Certificate Authority
                serial:88:22:0C:92:7C:A5:23:A4

            X509v3 Basic Constraints: 
                CA:TRUE
    Signature Algorithm: sha1WithRSAEncryption
        04:59:c2:45:1a:b6:7e:92:35:c1:ee:d0:8f:a8:92:7c:b0:7d:
        36:23:fc:56:9b:4d:98:9c:58:6c:30:46:87:24:db:c8:30:c4:
        0e:25:75:e5:df:65:ca:22:7e:4c:5f:10:46:84:3d:97:8b:c6:
        56:fa:94:ba:6a:9f:00:59:84:ee:1d:39:20:0c:a1:16:99:43:
        c6:1d:ef:45:8a:56:02:86:66:60:0d:91:b2:5f:a5:8e:97:90:
        f9:d8:0b:29:07:f4:64:0e:1a:8f:61:4e:7a:53:90:23:c3:db:
        fe:ef:94:8d:02:f2:dd:b9:1a:46:91:3c:08:3c:37:35:09:a0:
        ce:89
-----BEGIN CERTIFICATE-----
MIIDBzCCAnCgAwIBAgIJAIgiDJJ8pSOkMA0GCSqGSIb3DQEBBQUAMGExCzAJBgNV
BAYTAlVTMQ8wDQYDVQQIEwZIYXdhaWkxEjAQBgNVBAoTCWtldmluMTAyNDEtMCsG
A1UEAxMkcHl0ZXN0LWh0dHBiaW4gQ2VydGlmaWNhdGUgQXV0aG9yaXR5MB4XDTE0
MDYwNzIyMDI0MloXDTQ0MDUzMDIyMDI0MlowYTELMAkGA1UEBhMCVVMxDzANBgNV
BAgTBkhhd2FpaTESMBAGA1UEChMJa2V2aW4xMDI0MS0wKwYDVQQDEyRweXRlc3Qt
aHR0cGJpbiBDZXJ0aWZpY2F0ZSBBdXRob3JpdHkwgZ8wDQYJKoZIhvcNAQEBBQAD
gY0AMIGJAoGBALDz1+eYbJhGL1C15dWBovAilmxg/GTkwnpB8Srl7FeWsGkRiqrX
SfWIBQZGRjbDx9olnSzrmZtSlEDML4Ybi+Hu579QNEbm9zBGlyVZF+9zaWzSaVPA
//0vNxB1+wHSPVd14ptjhWgTvLYmXPIu+zvpu2O7SMBP3qDI2JSjW1YDAgMBAAGj
gcYwgcMwHQYDVR0OBBYEFDlT2H/tRLg4CJY4FH6fd4toO1TQMIGTBgNVHSMEgYsw
gYiAFDlT2H/tRLg4CJY4FH6fd4toO1TQoWWkYzBhMQswCQYDVQQGEwJVUzEPMA0G
A1UECBMGSGF3YWlpMRIwEAYDVQQKEwlrZXZpbjEwMjQxLTArBgNVBAMTJHB5dGVz
dC1odHRwYmluIENlcnRpZmljYXRlIEF1dGhvcml0eYIJAIgiDJJ8pSOkMAwGA1Ud
EwQFMAMBAf8wDQYJKoZIhvcNAQEFBQADgYEABFnCRRq2fpI1we7Qj6iSfLB9NiP8
VptNmJxYbDBGhyTbyDDEDiV15d9lyiJ+TF8QRoQ9l4vGVvqUumqfAFmE7h05IAyh
FplDxh3vRYpWAoZmYA2Rsl+ljpeQ+dgLKQf0ZA4aj2FOelOQI8Pb/u+UjQLy3bka
RpE8CDw3NQmgzok=
-----END CERTIFICATE-----
