Certificate:
    Data:
        Version: 3 (0x2)
        Serial Number:
            88:22:0c:92:7c:a5:23:a6
        Signature Algorithm: sha1WithRSAEncryption
        Issuer: C=US, ST=Hawaii, O=kevin1024, CN=pytest-httpbin Certificate Authority
        Validity
            Not Before: Jun  7 22:15:15 2014 GMT
            Not After : Jun  7 22:15:15 2015 GMT
        Subject: C=US, ST=HI, L=Kailua, O=kevin1024, CN=127.0.0.1
        Subject Public Key Info:
            Public Key Algorithm: rsaEncryption
            RSA Public Key: (1024 bit)
                Modulus (1024 bit):
                    00:94:32:25:d3:e7:1d:9b:57:08:7f:24:c6:ac:b7:
                    1d:30:db:6b:91:92:66:6c:6f:5a:c3:1d:53:5a:26:
                    82:5f:7c:c4:a6:e5:09:c9:5b:84:40:2a:ee:90:e2:
                    d0:66:1f:9c:8c:84:a4:4d:0c:46:48:aa:1a:69:b8:
                    a6:11:4d:4c:fd:f3:9a:69:ef:91:22:4a:d3:9e:9f:
                    43:35:91:7f:6b:f1:1d:4d:6e:cf:7e:eb:6d:17:7a:
                    8e:7a:c3:f4:9d:51:74:4f:c4:7b:7d:fc:3e:f9:62:
                    15:f8:8e:68:7b:4b:03:88:03:b4:6f:e6:dd:a9:49:
                    a6:33:1e:b1:40:ff:8e:83:c1
                Exponent: 65537 (0x10001)
        X509v3 extensions:
            X509v3 Basic Constraints: 
                CA:FALSE
            Netscape Comment: 
                OpenSSL Generated Certificate
            X509v3 Subject Key Identifier: 
                AE:09:89:C2:AA:B6:6B:33:D4:E4:77:8D:1D:ED:D4:3F:91:31:1E:38
            X509v3 Authority Key Identifier: 
                keyid:39:53:D8:7F:ED:44:B8:38:08:96:38:14:7E:9F:77:8B:68:3B:54:D0

    Signature Algorithm: sha1WithRSAEncryption
        29:09:41:53:e2:e8:a0:7a:9d:0d:d7:db:d1:41:3f:6d:25:94:
        0d:07:d8:fe:d3:2f:17:fb:f0:2f:1e:50:7d:0e:e1:34:c0:09:
        29:c9:56:c7:05:7c:25:a1:79:20:28:8a:06:94:cd:4a:af:ad:
        59:9f:85:50:4c:16:a1:ef:65:0c:f4:2a:bd:ba:8c:7c:7d:00:
        cf:3b:fd:e8:2d:c5:4a:41:13:e4:f0:a3:ef:85:2c:b2:37:be:
        af:3e:b8:a7:65:a2:b4:2a:e7:b1:80:23:96:d7:6f:48:4e:09:
        3e:40:e9:50:ef:49:0b:f5:e3:b5:74:74:b8:28:64:a2:39:70:
        3b:dd
-----BEGIN CERTIFICATE-----
MIICrTCCAhagAwIBAgIJAIgiDJJ8pSOmMA0GCSqGSIb3DQEBBQUAMGExCzAJBgNV
BAYTAlVTMQ8wDQYDVQQIEwZIYXdhaWkxEjAQBgNVBAoTCWtldmluMTAyNDEtMCsG
A1UEAxMkcHl0ZXN0LWh0dHBiaW4gQ2VydGlmaWNhdGUgQXV0aG9yaXR5MB4XDTE0
MDYwNzIyMTUxNVoXDTE1MDYwNzIyMTUxNVowUzELMAkGA1UEBhMCVVMxCzAJBgNV
BAgTAkhJMQ8wDQYDVQQHEwZLYWlsdWExEjAQBgNVBAoTCWtldmluMTAyNDESMBAG
A1UEAxMJMTI3LjAuMC4xMIGfMA0GCSqGSIb3DQEBAQUAA4GNADCBiQKBgQCUMiXT
5x2bVwh/JMastx0w22uRkmZsb1rDHVNaJoJffMSm5QnJW4RAKu6Q4tBmH5yMhKRN
DEZIqhppuKYRTUz985pp75EiStOen0M1kX9r8R1Nbs9+620Xeo56w/SdUXRPxHt9
/D75YhX4jmh7SwOIA7Rv5t2pSaYzHrFA/46DwQIDAQABo3sweTAJBgNVHRMEAjAA
MCwGCWCGSAGG+EIBDQQfFh1PcGVuU1NMIEdlbmVyYXRlZCBDZXJ0aWZpY2F0ZTAd
BgNVHQ4EFgQUrgmJwqq2azPU5HeNHe3UP5ExHjgwHwYDVR0jBBgwFoAUOVPYf+1E
uDgIljgUfp93i2g7VNAwDQYJKoZIhvcNAQEFBQADgYEAKQlBU+LooHqdDdfb0UE/
bSWUDQfY/tMvF/vwLx5QfQ7hNMAJKclWxwV8JaF5ICiKBpTNSq+tWZ+FUEwWoe9l
DPQqvbqMfH0Azzv96C3FSkET5PCj74Ussje+rz64p2WitCrnsYAjltdvSE4JPkDp
UO9JC/XjtXR0uChkojlwO90=
-----END CERTIFICATE-----
